(lp0
(F0.12156862745098039
F0.4666666666666667
F0.7058823529411765
tp1
a(F0.6823529411764706
F0.7803921568627451
F0.9098039215686274
tp2
a(F1.0
F0.4980392156862745
F0.054901960784313725
tp3
a(F1.0
F0.7333333333333333
F0.47058823529411764
tp4
a(F0.17254901960784313
F0.6274509803921569
F0.17254901960784313
tp5
a(F0.596078431372549
F0.8745098039215686
F0.5411764705882353
tp6
a(F0.8392156862745098
F0.15294117647058825
F0.1568627450980392
tp7
a(F1.0
F0.596078431372549
F0.5882352941176471
tp8
a(F0.5803921568627451
F0.403921568627451
F0.7411764705882353
tp9
a(F0.7725490196078432
F0.6901960784313725
F0.8352941176470589
tp10
a(F0.5490196078431373
F0.33725490196078434
F0.29411764705882354
tp11
a(F0.7686274509803922
F0.611764705882353
F0.5803921568627451
tp12
a(F0.8901960784313725
F0.4666666666666667
F0.7607843137254902
tp13
a(F0.9686274509803922
F0.7137254901960784
F0.8235294117647058
tp14
a(F0.4980392156862745
F0.4980392156862745
F0.4980392156862745
tp15
a(F0.7803921568627451
F0.7803921568627451
F0.7803921568627451
tp16
a(F0.7372549019607844
F0.7411764705882353
F0.13333333333333333
tp17
a(F0.8588235294117647
F0.8588235294117647
F0.5529411764705883
tp18
a(F0.09019607843137255
F0.7450980392156863
F0.8117647058823529
tp19
a(F0.6196078431372549
F0.8549019607843137
F0.8980392156862745
tp20
a.